target datalayout = "e-m:e-p270:32:32-p271:32:32-p272:64:64-i64:64-i128:128-f80:128-n8:16:32:64-S128"
target triple = "x86_64-pc-linux-gnu"

%struct.commit_graph = type { ptr, i64, i8, i8, i32, %struct.object_id, ptr, ptr, i32, i32, ptr, ptr, ptr, ptr, ptr, ptr, i64, ptr, i64, ptr, i64, ptr, ptr, i64, ptr, ptr }
%struct.object_id = type { [32 x i8], i32 }
%struct.commit = type { %struct.object, i64, ptr, ptr, i32 }
%struct.object = type { i32, %struct.object_id }

@.str.31 = private unnamed_addr constant [1 x i8] zeroinitializer, align 1
@git_gettext_enabled = external global i32, align 4
@.str.45 = private unnamed_addr constant [47 x i8] c"commit-graph extra-edges pointer out of bounds\00", align 1
@.str.59 = private unnamed_addr constant [27 x i8] c"size_t overflow: %lu * %lu\00", align 1

; Function Attrs: inlinehint nounwind uwtable
define internal i32 @const_error() #5 {
  ret i32 -1
}

; Function Attrs: inlinehint nounwind uwtable
define internal ptr @_(ptr noundef %0) #5 {
  %2 = alloca ptr, align 8
  %3 = alloca ptr, align 8
  store ptr %0, ptr %3, align 8, !tbaa !65
  %4 = load ptr, ptr %3, align 8, !tbaa !65
  %5 = load i8, ptr %4, align 1, !tbaa !85
  %6 = icmp ne i8 %5, 0
  br i1 %6, label %8, label %7

7:                                                ; preds = %1
  store ptr @.str.31, ptr %2, align 8
  br label %16

8:                                                ; preds = %1
  %9 = load i32, ptr @git_gettext_enabled, align 4, !tbaa !4
  %10 = icmp ne i32 %9, 0
  br i1 %10, label %13, label %11

11:                                               ; preds = %8
  %12 = load ptr, ptr %3, align 8, !tbaa !65
  store ptr %12, ptr %2, align 8
  br label %16

13:                                               ; preds = %8
  %14 = load ptr, ptr %3, align 8, !tbaa !65
  %15 = call ptr @dcgettext(ptr noundef null, ptr noundef %14, i32 noundef 5) #12
  store ptr %15, ptr %2, align 8
  br label %16

16:                                               ; preds = %13, %11, %7
  %17 = load ptr, ptr %2, align 8
  ret ptr %17
}

; Function Attrs: inlinehint nounwind uwtable
define internal i32 @get_be32(ptr noundef %0) #5 {
  %2 = alloca ptr, align 8
  %3 = alloca ptr, align 8
  store ptr %0, ptr %2, align 8, !tbaa !78
  call void @llvm.lifetime.start.p0(i64 8, ptr %3) #12
  %4 = load ptr, ptr %2, align 8, !tbaa !78
  store ptr %4, ptr %3, align 8, !tbaa !65
  %5 = load ptr, ptr %3, align 8, !tbaa !65
  %6 = getelementptr inbounds i8, ptr %5, i64 0
  %7 = load i8, ptr %6, align 1, !tbaa !85
  %8 = zext i8 %7 to i32
  %9 = shl i32 %8, 24
  %10 = load ptr, ptr %3, align 8, !tbaa !65
  %11 = getelementptr inbounds i8, ptr %10, i64 1
  %12 = load i8, ptr %11, align 1, !tbaa !85
  %13 = zext i8 %12 to i32
  %14 = shl i32 %13, 16
  %15 = or i32 %9, %14
  %16 = load ptr, ptr %3, align 8, !tbaa !65
  %17 = getelementptr inbounds i8, ptr %16, i64 2
  %18 = load i8, ptr %17, align 1, !tbaa !85
  %19 = zext i8 %18 to i32
  %20 = shl i32 %19, 8
  %21 = or i32 %15, %20
  %22 = load ptr, ptr %3, align 8, !tbaa !65
  %23 = getelementptr inbounds i8, ptr %22, i64 3
  %24 = load i8, ptr %23, align 1, !tbaa !85
  %25 = zext i8 %24 to i32
  %26 = shl i32 %25, 0
  %27 = or i32 %21, %26
  call void @llvm.lifetime.end.p0(i64 8, ptr %3) #12
  ret i32 %27
}

; Function Attrs: inlinehint nounwind uwtable
define internal void @set_commit_tree(ptr noundef %0, ptr noundef %1) #5 {
  %3 = alloca ptr, align 8
  %4 = alloca ptr, align 8
  store ptr %0, ptr %3, align 8, !tbaa !52
  store ptr %1, ptr %4, align 8, !tbaa !317
  %5 = load ptr, ptr %4, align 8, !tbaa !317
  %6 = load ptr, ptr %3, align 8, !tbaa !52
  %7 = getelementptr inbounds nuw %struct.commit, ptr %6, i32 0, i32 3
  store ptr %5, ptr %7, align 8, !tbaa !164
  ret void
}

; Function Attrs: inlinehint nounwind uwtable
define internal i64 @st_mult(i64 noundef %0, i64 noundef %1) #5 {
  %3 = alloca i64, align 8
  %4 = alloca i64, align 8
  store i64 %0, ptr %3, align 8, !tbaa !73
  store i64 %1, ptr %4, align 8, !tbaa !73
  %5 = load i64, ptr %3, align 8, !tbaa !73
  %6 = icmp ne i64 %5, 0
  br i1 %6, label %7, label %15

7:                                                ; preds = %2
  %8 = load i64, ptr %4, align 8, !tbaa !73
  %9 = load i64, ptr %3, align 8, !tbaa !73
  %10 = udiv i64 -1, %9
  %11 = icmp ugt i64 %8, %10
  br i1 %11, label %12, label %15

12:                                               ; preds = %7
  %13 = load i64, ptr %3, align 8, !tbaa !73
  %14 = load i64, ptr %4, align 8, !tbaa !73
  call void (ptr, ...) @die(ptr noundef @.str.59, i64 noundef %13, i64 noundef %14) #13
  unreachable

15:                                               ; preds = %7, %2
  %16 = load i64, ptr %3, align 8, !tbaa !73
  %17 = load i64, ptr %4, align 8, !tbaa !73
  %18 = mul i64 %16, %17
  ret i64 %18
}

; Function Attrs: nounwind uwtable
define internal i32 @fill_commit_in_graph(ptr noundef %0, ptr noundef %1, ptr noundef %2, i32 noundef %3) #0 {
  %5 = alloca i32, align 4
  %6 = alloca ptr, align 8
  %7 = alloca ptr, align 8
  %8 = alloca ptr, align 8
  %9 = alloca i32, align 4
  %10 = alloca i32, align 4
  %11 = alloca i32, align 4
  %12 = alloca ptr, align 8
  %13 = alloca ptr, align 8
  %14 = alloca i32, align 4
  %15 = alloca i32, align 4
  store ptr %0, ptr %6, align 8, !tbaa !8
  store ptr %1, ptr %7, align 8, !tbaa !52
  store ptr %2, ptr %8, align 8, !tbaa !79
  store i32 %3, ptr %9, align 4, !tbaa !4
  call void @llvm.lifetime.start.p0(i64 4, ptr %10) #12
  call void @llvm.lifetime.start.p0(i64 4, ptr %11) #12
  call void @llvm.lifetime.start.p0(i64 8, ptr %12) #12
  call void @llvm.lifetime.start.p0(i64 8, ptr %13) #12
  call void @llvm.lifetime.start.p0(i64 4, ptr %14) #12
  br label %16

16:                                               ; preds = %22, %4
  %17 = load i32, ptr %9, align 4, !tbaa !4
  %18 = load ptr, ptr %8, align 8, !tbaa !79
  %19 = getelementptr inbounds nuw %struct.commit_graph, ptr %18, i32 0, i32 8
  %20 = load i32, ptr %19, align 8, !tbaa !129
  %21 = icmp ult i32 %17, %20
  br i1 %21, label %22, label %26

22:                                               ; preds = %16
  %23 = load ptr, ptr %8, align 8, !tbaa !79
  %24 = getelementptr inbounds nuw %struct.commit_graph, ptr %23, i32 0, i32 10
  %25 = load ptr, ptr %24, align 8, !tbaa !127
  store ptr %25, ptr %8, align 8, !tbaa !79
  br label %16, !llvm.loop !148

26:                                               ; preds = %16
  %27 = load ptr, ptr %7, align 8, !tbaa !52
  %28 = load ptr, ptr %8, align 8, !tbaa !79
  %29 = load i32, ptr %9, align 4, !tbaa !4
  call void @fill_commit_graph_info(ptr noundef %27, ptr noundef %28, i32 noundef %29)
  %30 = load i32, ptr %9, align 4, !tbaa !4
  %31 = load ptr, ptr %8, align 8, !tbaa !79
  %32 = getelementptr inbounds nuw %struct.commit_graph, ptr %31, i32 0, i32 8
  %33 = load i32, ptr %32, align 8, !tbaa !129
  %34 = sub i32 %30, %33
  store i32 %34, ptr %14, align 4, !tbaa !4
  %35 = load ptr, ptr %8, align 8, !tbaa !79
  %36 = getelementptr inbounds nuw %struct.commit_graph, ptr %35, i32 0, i32 13
  %37 = load ptr, ptr %36, align 8, !tbaa !106
  %38 = load ptr, ptr %8, align 8, !tbaa !79
  %39 = getelementptr inbounds nuw %struct.commit_graph, ptr %38, i32 0, i32 2
  %40 = load i8, ptr %39, align 8, !tbaa !90
  %41 = zext i8 %40 to i32
  %42 = add nsw i32 %41, 16
  %43 = sext i32 %42 to i64
  %44 = load i32, ptr %14, align 4, !tbaa !4
  %45 = zext i32 %44 to i64
  %46 = call i64 @st_mult(i64 noundef %43, i64 noundef %45)
  %47 = getelementptr inbounds nuw i8, ptr %37, i64 %46
  store ptr %47, ptr %13, align 8, !tbaa !65
  %48 = load ptr, ptr %7, align 8, !tbaa !52
  %49 = getelementptr inbounds nuw %struct.commit, ptr %48, i32 0, i32 0
  %50 = load i32, ptr %49, align 8
  %51 = and i32 %50, -2
  %52 = or i32 %51, 1
  store i32 %52, ptr %49, align 8
  %53 = load ptr, ptr %7, align 8, !tbaa !52
  call void @set_commit_tree(ptr noundef %53, ptr noundef null)
  %54 = load ptr, ptr %7, align 8, !tbaa !52
  %55 = getelementptr inbounds nuw %struct.commit, ptr %54, i32 0, i32 2
  store ptr %55, ptr %12, align 8, !tbaa !149
  %56 = load ptr, ptr %13, align 8, !tbaa !65
  %57 = load ptr, ptr %8, align 8, !tbaa !79
  %58 = getelementptr inbounds nuw %struct.commit_graph, ptr %57, i32 0, i32 2
  %59 = load i8, ptr %58, align 8, !tbaa !90
  %60 = zext i8 %59 to i32
  %61 = sext i32 %60 to i64
  %62 = getelementptr inbounds i8, ptr %56, i64 %61
  %63 = call i32 @get_be32(ptr noundef %62)
  store i32 %63, ptr %10, align 4, !tbaa !4
  %64 = load i32, ptr %10, align 4, !tbaa !4
  %65 = icmp eq i32 %64, 1879048192
  br i1 %65, label %66, label %67

66:                                               ; preds = %26
  store i32 1, ptr %5, align 4
  store i32 1, ptr %15, align 4
  br label %143

67:                                               ; preds = %26
  %68 = load ptr, ptr %6, align 8, !tbaa !8
  %69 = load ptr, ptr %8, align 8, !tbaa !79
  %70 = load i32, ptr %10, align 4, !tbaa !4
  %71 = load ptr, ptr %12, align 8, !tbaa !149
  %72 = call ptr @insert_parent_or_die(ptr noundef %68, ptr noundef %69, i32 noundef %70, ptr noundef %71)
  store ptr %72, ptr %12, align 8, !tbaa !149
  %73 = load ptr, ptr %13, align 8, !tbaa !65
  %74 = load ptr, ptr %8, align 8, !tbaa !79
  %75 = getelementptr inbounds nuw %struct.commit_graph, ptr %74, i32 0, i32 2
  %76 = load i8, ptr %75, align 8, !tbaa !90
  %77 = zext i8 %76 to i32
  %78 = sext i32 %77 to i64
  %79 = getelementptr inbounds i8, ptr %73, i64 %78
  %80 = getelementptr inbounds i8, ptr %79, i64 4
  %81 = call i32 @get_be32(ptr noundef %80)
  store i32 %81, ptr %10, align 4, !tbaa !4
  %82 = load i32, ptr %10, align 4, !tbaa !4
  %83 = icmp eq i32 %82, 1879048192
  br i1 %83, label %84, label %85

84:                                               ; preds = %67
  store i32 1, ptr %5, align 4
  store i32 1, ptr %15, align 4
  br label %143

85:                                               ; preds = %67
  %86 = load i32, ptr %10, align 4, !tbaa !4
  %87 = and i32 %86, -2147483648
  %88 = icmp ne i32 %87, 0
  br i1 %88, label %95, label %89

89:                                               ; preds = %85
  %90 = load ptr, ptr %6, align 8, !tbaa !8
  %91 = load ptr, ptr %8, align 8, !tbaa !79
  %92 = load i32, ptr %10, align 4, !tbaa !4
  %93 = load ptr, ptr %12, align 8, !tbaa !149
  %94 = call ptr @insert_parent_or_die(ptr noundef %90, ptr noundef %91, i32 noundef %92, ptr noundef %93)
  store ptr %94, ptr %12, align 8, !tbaa !149
  store i32 1, ptr %5, align 4
  store i32 1, ptr %15, align 4
  br label %143

95:                                               ; preds = %85
  %96 = load i32, ptr %10, align 4, !tbaa !4
  %97 = and i32 %96, 2147483647
  store i32 %97, ptr %11, align 4, !tbaa !4
  br label %98

98:                                               ; preds = %137, %95
  %99 = load ptr, ptr %8, align 8, !tbaa !79
  %100 = getelementptr inbounds nuw %struct.commit_graph, ptr %99, i32 0, i32 18
  %101 = load i64, ptr %100, align 8, !tbaa !151
  %102 = udiv i64 %101, 4
  %103 = load i32, ptr %11, align 4, !tbaa !4
  %104 = zext i32 %103 to i64
  %105 = icmp ule i64 %102, %104
  br i1 %105, label %106, label %120

106:                                              ; preds = %98
  %107 = call ptr @_(ptr noundef @.str.45)
  %108 = call i32 (ptr, ...) @error(ptr noundef %107)
  %109 = call i32 @const_error()
  %110 = load ptr, ptr %7, align 8, !tbaa !52
  %111 = getelementptr inbounds nuw %struct.commit, ptr %110, i32 0, i32 2
  %112 = load ptr, ptr %111, align 8, !tbaa !152
  call void @free_commit_list(ptr noundef %112)
  %113 = load ptr, ptr %7, align 8, !tbaa !52
  %114 = getelementptr inbounds nuw %struct.commit, ptr %113, i32 0, i32 2
  store ptr null, ptr %114, align 8, !tbaa !152
  %115 = load ptr, ptr %7, align 8, !tbaa !52
  %116 = getelementptr inbounds nuw %struct.commit, ptr %115, i32 0, i32 0
  %117 = load i32, ptr %116, align 8
  %118 = and i32 %117, -2
  %119 = or i32 %118, 0
  store i32 %119, ptr %116, align 8
  store i32 0, ptr %5, align 4
  store i32 1, ptr %15, align 4
  br label %143

120:                                              ; preds = %98
  %121 = load ptr, ptr %8, align 8, !tbaa !79
  %122 = getelementptr inbounds nuw %struct.commit_graph, ptr %121, i32 0, i32 17
  %123 = load ptr, ptr %122, align 8, !tbaa !157
  %124 = load i32, ptr %11, align 4, !tbaa !4
  %125 = zext i32 %124 to i64
  %126 = mul i64 4, %125
  %127 = getelementptr inbounds nuw i8, ptr %123, i64 %126
  %128 = call i32 @get_be32(ptr noundef %127)
  store i32 %128, ptr %10, align 4, !tbaa !4
  %129 = load ptr, ptr %6, align 8, !tbaa !8
  %130 = load ptr, ptr %8, align 8, !tbaa !79
  %131 = load i32, ptr %10, align 4, !tbaa !4
  %132 = and i32 %131, 2147483647
  %133 = load ptr, ptr %12, align 8, !tbaa !149
  %134 = call ptr @insert_parent_or_die(ptr noundef %129, ptr noundef %130, i32 noundef %132, ptr noundef %133)
  store ptr %134, ptr %12, align 8, !tbaa !149
  %135 = load i32, ptr %11, align 4, !tbaa !4
  %136 = add i32 %135, 1
  store i32 %136, ptr %11, align 4, !tbaa !4
  br label %137

137:                                              ; preds = %120
  %138 = load i32, ptr %10, align 4, !tbaa !4
  %139 = and i32 %138, -2147483648
  %140 = icmp ne i32 %139, 0
  %141 = xor i1 %140, true
  br i1 %141, label %98, label %142, !llvm.loop !158

142:                                              ; preds = %137
  store i32 1, ptr %5, align 4
  store i32 1, ptr %15, align 4
  br label %143

143:                                              ; preds = %142, %106, %89, %84, %66
  call void @llvm.lifetime.end.p0(i64 4, ptr %14) #12
  call void @llvm.lifetime.end.p0(i64 8, ptr %13) #12
  call void @llvm.lifetime.end.p0(i64 8, ptr %12) #12
  call void @llvm.lifetime.end.p0(i64 4, ptr %11) #12
  call void @llvm.lifetime.end.p0(i64 4, ptr %10) #12
  %144 = load i32, ptr %5, align 4
  ret i32 %144
}