; Function Attrs: nounwind uwtable
define internal fastcc range(i32 0, 2) i32 @fill_commit_in_graph(ptr noundef %0, ptr noundef %1, ptr noundef readonly captures(none) %2, i32 noundef %3) unnamed_addr #0 {
  %5 = getelementptr inbounds nuw i8, ptr %2, i64 80
  %6 = load i32, ptr %5, align 8, !tbaa !116
  %7 = icmp ult i32 %3, %6
  br i1 %7, label %.lr.ph, label %st_mult.exit

.lr.ph:                                           ; preds = %4, %.lr.ph
  %.04356 = phi ptr [ %9, %.lr.ph ], [ %2, %4 ]
  %8 = getelementptr inbounds nuw i8, ptr %.04356, i64 88
  %9 = load ptr, ptr %8, align 8, !tbaa !114
  %10 = getelementptr inbounds nuw i8, ptr %9, i64 80
  %11 = load i32, ptr %10, align 8, !tbaa !116
  %12 = icmp ult i32 %3, %11
  br i1 %12, label %.lr.ph, label %st_mult.exit, !llvm.loop !132

st_mult.exit:                                     ; preds = %.lr.ph, %4
  %.043.lcssa55 = phi ptr [ %2, %4 ], [ %9, %.lr.ph ]
  %13 = getelementptr inbounds nuw i8, ptr %.043.lcssa55, i64 80
  tail call fastcc void @fill_commit_graph_info(ptr noundef %1, ptr noundef nonnull %.043.lcssa55, i32 noundef %3)
  %14 = getelementptr inbounds nuw i8, ptr %.043.lcssa55, i64 16
  %15 = load i32, ptr %13, align 8, !tbaa !116
  %16 = sub i32 %3, %15
  %17 = zext i32 %16 to i64
  %18 = load i8, ptr %14, align 8, !tbaa !81
  %19 = zext i8 %18 to i64
  %20 = add nuw nsw i64 %19, 16
  %21 = getelementptr inbounds nuw i8, ptr %.043.lcssa55, i64 112
  %22 = load ptr, ptr %21, align 8, !tbaa !100
  %23 = mul nuw nsw i64 %20, %17
  %24 = getelementptr inbounds nuw i8, ptr %22, i64 %23
  %25 = load i32, ptr %1, align 8
  %26 = or i32 %25, 1
  store i32 %26, ptr %1, align 8
  %27 = getelementptr inbounds nuw i8, ptr %1, i64 56
  store ptr null, ptr %27, align 8, !tbaa !133
  %28 = getelementptr inbounds nuw i8, ptr %1, i64 48
  %29 = load i8, ptr %14, align 8, !tbaa !81
  %30 = zext i8 %29 to i64
  %31 = getelementptr inbounds nuw i8, ptr %24, i64 %30
  %32 = load i8, ptr %31, align 1, !tbaa !80
  %33 = zext i8 %32 to i32
  %34 = shl nuw i32 %33, 24
  %35 = getelementptr inbounds nuw i8, ptr %31, i64 1
  %36 = load i8, ptr %35, align 1, !tbaa !80
  %37 = zext i8 %36 to i32
  %38 = shl nuw nsw i32 %37, 16
  %39 = or disjoint i32 %38, %34
  %40 = getelementptr inbounds nuw i8, ptr %31, i64 2
  %41 = load i8, ptr %40, align 1, !tbaa !80
  %42 = zext i8 %41 to i32
  %43 = shl nuw nsw i32 %42, 8
  %44 = or disjoint i32 %39, %43
  %45 = getelementptr inbounds nuw i8, ptr %31, i64 3
  %46 = load i8, ptr %45, align 1, !tbaa !80
  %47 = zext i8 %46 to i32
  %48 = or disjoint i32 %44, %47
  %49 = icmp eq i32 %48, 1879048192
  br i1 %49, label %.loopexit, label %50

50:                                               ; preds = %st_mult.exit
  %51 = tail call fastcc ptr @insert_parent_or_die(ptr noundef %0, ptr noundef nonnull %.043.lcssa55, i32 noundef %48, ptr noundef nonnull %28)
  %52 = load i8, ptr %14, align 8, !tbaa !81
  %53 = zext i8 %52 to i64
  %54 = getelementptr inbounds nuw i8, ptr %24, i64 %53
  %55 = getelementptr inbounds nuw i8, ptr %54, i64 4
  %56 = load i8, ptr %55, align 1, !tbaa !80
  %57 = zext i8 %56 to i32
  %58 = shl nuw i32 %57, 24
  %59 = getelementptr inbounds nuw i8, ptr %54, i64 5
  %60 = load i8, ptr %59, align 1, !tbaa !80
  %61 = zext i8 %60 to i32
  %62 = shl nuw nsw i32 %61, 16
  %63 = getelementptr inbounds nuw i8, ptr %54, i64 6
  %64 = load i8, ptr %63, align 1, !tbaa !80
  %65 = zext i8 %64 to i32
  %66 = shl nuw nsw i32 %65, 8
  %67 = getelementptr inbounds nuw i8, ptr %54, i64 7
  %68 = load i8, ptr %67, align 1, !tbaa !80
  %69 = zext i8 %68 to i32
  %70 = or disjoint i32 %62, %69
  %71 = or disjoint i32 %70, %66
  %72 = or disjoint i32 %71, %58
  %73 = icmp eq i32 %72, 1879048192
  br i1 %73, label %.loopexit, label %74

74:                                               ; preds = %50
  %.not = icmp sgt i32 %58, -1
  br i1 %.not, label %75, label %77

75:                                               ; preds = %74
  %76 = tail call fastcc ptr @insert_parent_or_die(ptr noundef %0, ptr noundef nonnull %.043.lcssa55, i32 noundef %72, ptr noundef nonnull %51)
  br label %.loopexit

77:                                               ; preds = %74
  %78 = and i32 %72, 2147483647
  %79 = getelementptr inbounds nuw i8, ptr %.043.lcssa55, i64 152
  %80 = getelementptr inbounds nuw i8, ptr %.043.lcssa55, i64 144
  br label %81

81:                                               ; preds = %93, %77
  %.045 = phi i32 [ %78, %77 ], [ %113, %93 ]
  %.044 = phi ptr [ %51, %77 ], [ %112, %93 ]
  %82 = load i64, ptr %79, align 8, !tbaa !134
  %83 = lshr i64 %82, 2
  %84 = zext i32 %.045 to i64
  %.not50 = icmp samesign ugt i64 %83, %84
  br i1 %.not50, label %93, label %85

85:                                               ; preds = %81
  %86 = load i32, ptr @git_gettext_enabled, align 4, !tbaa !47
  %.not4.i = icmp eq i32 %86, 0
  br i1 %.not4.i, label %_.exit, label %87

87:                                               ; preds = %85
  %88 = tail call ptr @dcgettext(ptr noundef null, ptr noundef nonnull @.str.45, i32 noundef 5) #24
  br label %_.exit

_.exit:                                           ; preds = %85, %87
  %.0.i = phi ptr [ %88, %87 ], [ @.str.45, %85 ]
  %89 = tail call i32 (ptr, ...) @error(ptr noundef %.0.i) #24
  %90 = load ptr, ptr %28, align 8, !tbaa !135
  tail call void @free_commit_list(ptr noundef %90) #24
  store ptr null, ptr %28, align 8, !tbaa !135
  %91 = load i32, ptr %1, align 8
  %92 = and i32 %91, -2
  store i32 %92, ptr %1, align 8
  br label %.loopexit

93:                                               ; preds = %81
  %94 = load ptr, ptr %80, align 8, !tbaa !136
  %95 = shl nuw nsw i64 %84, 2
  %96 = getelementptr inbounds nuw i8, ptr %94, i64 %95
  %97 = load i8, ptr %96, align 1, !tbaa !80
  %98 = zext i8 %97 to i32
  %99 = shl nuw i32 %98, 24
  %100 = getelementptr inbounds nuw i8, ptr %96, i64 1
  %101 = load i8, ptr %100, align 1, !tbaa !80
  %102 = zext i8 %101 to i32
  %103 = shl nuw nsw i32 %102, 16
  %104 = getelementptr inbounds nuw i8, ptr %96, i64 2
  %105 = load i8, ptr %104, align 1, !tbaa !80
  %106 = zext i8 %105 to i32
  %107 = shl nuw nsw i32 %106, 8
  %108 = getelementptr inbounds nuw i8, ptr %96, i64 3
  %109 = load i8, ptr %108, align 1, !tbaa !80
  %110 = zext i8 %109 to i32
  %.masked54 = and i32 %99, 2130706432
  %.masked53 = or disjoint i32 %103, %.masked54
  %.masked = or disjoint i32 %.masked53, %107
  %111 = or disjoint i32 %.masked, %110
  %112 = tail call fastcc ptr @insert_parent_or_die(ptr noundef %0, ptr noundef nonnull %.043.lcssa55, i32 noundef %111, ptr noundef nonnull %.044)
  %113 = add i32 %.045, 1
  %.not51 = icmp sgt i32 %99, -1
  br i1 %.not51, label %81, label %.loopexit, !llvm.loop !137

.loopexit:                                        ; preds = %93, %50, %st_mult.exit, %_.exit, %75
  %.0 = phi i32 [ 0, %_.exit ], [ 1, %75 ], [ 1, %st_mult.exit ], [ 1, %50 ], [ 1, %93 ]
  ret i32 %.0
}